target datalayout = "e-m:e-p270:32:32-p271:32:32-p272:64:64-i64:64-i128:128-f80:128-n8:16:32:64-S128"
target triple = "x86_64-pc-linux-gnu"

%class.SignatureIterator = type { ptr, i8, i64 }
%class.Fingerprinter = type { %class.SignatureIterator, i64, i32, i32, i32, ptr, i32, i32 }

@g_assert_poison = external global ptr, align 8
@.str = private unnamed_addr constant [40 x i8] c"src/hotspot/share/runtime/signature.cpp\00", align 1

; Function Attrs: mustprogress nounwind uwtable
define linkonce_odr hidden noundef i32 @_Z10align_downIiiTnNSt9enable_ifIXcvbsr3std11is_integralIT_EE5valueEiE4typeELi0EES1_S1_T0_(i32 noundef %0, i32 noundef %1) #1 comdat {
  %3 = alloca i32, align 4
  %4 = alloca i32, align 4
  %5 = alloca i32, align 4
  store i32 %0, ptr %3, align 4
  store i32 %1, ptr %4, align 4
  %6 = load i32, ptr %3, align 4
  %7 = load i32, ptr %4, align 4
  %8 = call noundef i32 @_ZL14alignment_maskIiTnNSt9enable_ifIXcvbsr3std11is_integralIT_EE5valueEiE4typeELi0EES1_S1_(i32 noundef %7)
  %9 = xor i32 %8, -1
  %10 = and i32 %6, %9
  store i32 %10, ptr %5, align 4
  %11 = load i32, ptr %5, align 4
  ret i32 %11
}

; Function Attrs: mustprogress nounwind uwtable
define linkonce_odr hidden noundef i32 @_Z12checked_castIiiET_T0_(i32 noundef %0) #1 comdat {
  %2 = alloca i32, align 4
  %3 = alloca i32, align 4
  store i32 %0, ptr %2, align 4
  %4 = load i32, ptr %2, align 4
  store i32 %4, ptr %3, align 4
  %5 = load i32, ptr %3, align 4
  ret i32 %5
}

; Function Attrs: mustprogress nounwind uwtable
define internal noundef i32 @_ZL14alignment_maskIiTnNSt9enable_ifIXcvbsr3std11is_integralIT_EE5valueEiE4typeELi0EES1_S1_(i32 noundef %0) #1 {
  %2 = alloca i32, align 4
  store i32 %0, ptr %2, align 4
  %3 = load i32, ptr %2, align 4
  %4 = sub nsw i32 %3, 1
  ret i32 %4
}

; Function Attrs: mustprogress nounwind uwtable
define linkonce_odr hidden noundef i32 @_Z8align_upIiiTnNSt9enable_ifIXcvbsr3std11is_integralIT_EE5valueEiE4typeELi0EES1_S1_T0_(i32 noundef %0, i32 noundef %1) #1 comdat {
  %3 = alloca i32, align 4
  %4 = alloca i32, align 4
  %5 = alloca i32, align 4
  store i32 %0, ptr %3, align 4
  store i32 %1, ptr %4, align 4
  %6 = load i32, ptr %3, align 4
  %7 = load i32, ptr %4, align 4
  %8 = call noundef i32 @_ZL14alignment_maskIiTnNSt9enable_ifIXcvbsr3std11is_integralIT_EE5valueEiE4typeELi0EES1_S1_(i32 noundef %7)
  %9 = add nsw i32 %6, %8
  %10 = call noundef i32 @_Z12checked_castIiiET_T0_(i32 noundef %9)
  store i32 %10, ptr %5, align 4
  %11 = load i32, ptr %5, align 4
  %12 = load i32, ptr %4, align 4
  %13 = call noundef i32 @_Z10align_downIiiTnNSt9enable_ifIXcvbsr3std11is_integralIT_EE5valueEiE4typeELi0EES1_S1_T0_(i32 noundef %11, i32 noundef %12)
  ret i32 %13
}

; Function Attrs: mustprogress nounwind uwtable
define hidden void @_ZN13Fingerprinter26do_type_calling_conventionE9BasicType(ptr noundef nonnull align 8 dereferenceable(64) %0, i8 noundef zeroext %1) #1 align 2 {
  %3 = alloca ptr, align 8
  %4 = alloca i8, align 1
  store ptr %0, ptr %3, align 8
  store i8 %1, ptr %4, align 1
  %5 = load ptr, ptr %3, align 8
  %6 = load i8, ptr %4, align 1
  %7 = zext i8 %6 to i32
  switch i32 %7, label %77 [
    i32 14, label %8
    i32 4, label %9
    i32 5, label %9
    i32 8, label %9
    i32 9, label %9
    i32 10, label %9
    i32 11, label %26
    i32 12, label %26
    i32 13, label %26
    i32 15, label %26
    i32 6, label %43
    i32 7, label %60
  ]

8:                                                ; preds = %2
  br label %81

9:                                                ; preds = %2, %2, %2, %2, %2
  %10 = getelementptr inbounds %class.Fingerprinter, ptr %5, i32 0, i32 6
  %11 = load i32, ptr %10, align 8
  %12 = icmp ult i32 %11, 6
  br i1 %12, label %13, label %17

13:                                               ; preds = %9
  %14 = getelementptr inbounds %class.Fingerprinter, ptr %5, i32 0, i32 6
  %15 = load i32, ptr %14, align 8
  %16 = add i32 %15, 1
  store i32 %16, ptr %14, align 8
  br label %25

17:                                               ; preds = %9
  %18 = getelementptr inbounds %class.Fingerprinter, ptr %5, i32 0, i32 3
  %19 = load i32, ptr %18, align 4
  %20 = call noundef i32 @_Z8align_upIiiTnNSt9enable_ifIXcvbsr3std11is_integralIT_EE5valueEiE4typeELi0EES1_S1_T0_(i32 noundef %19, i32 noundef 2)
  %21 = getelementptr inbounds %class.Fingerprinter, ptr %5, i32 0, i32 3
  store i32 %20, ptr %21, align 4
  %22 = getelementptr inbounds %class.Fingerprinter, ptr %5, i32 0, i32 3
  %23 = load i32, ptr %22, align 4
  %24 = add nsw i32 %23, 1
  store i32 %24, ptr %22, align 4
  br label %25

25:                                               ; preds = %17, %13
  br label %81

26:                                               ; preds = %2, %2, %2, %2
  %27 = getelementptr inbounds %class.Fingerprinter, ptr %5, i32 0, i32 6
  %28 = load i32, ptr %27, align 8
  %29 = icmp ult i32 %28, 6
  br i1 %29, label %30, label %34

30:                                               ; preds = %26
  %31 = getelementptr inbounds %class.Fingerprinter, ptr %5, i32 0, i32 6
  %32 = load i32, ptr %31, align 8
  %33 = add i32 %32, 1
  store i32 %33, ptr %31, align 8
  br label %42

34:                                               ; preds = %26
  %35 = getelementptr inbounds %class.Fingerprinter, ptr %5, i32 0, i32 3
  %36 = load i32, ptr %35, align 4
  %37 = call noundef i32 @_Z8align_upIiiTnNSt9enable_ifIXcvbsr3std11is_integralIT_EE5valueEiE4typeELi0EES1_S1_T0_(i32 noundef %36, i32 noundef 2)
  %38 = getelementptr inbounds %class.Fingerprinter, ptr %5, i32 0, i32 3
  store i32 %37, ptr %38, align 4
  %39 = getelementptr inbounds %class.Fingerprinter, ptr %5, i32 0, i32 3
  %40 = load i32, ptr %39, align 4
  %41 = add nsw i32 %40, 2
  store i32 %41, ptr %39, align 4
  br label %42

42:                                               ; preds = %34, %30
  br label %81

43:                                               ; preds = %2
  %44 = getelementptr inbounds %class.Fingerprinter, ptr %5, i32 0, i32 7
  %45 = load i32, ptr %44, align 4
  %46 = icmp ult i32 %45, 8
  br i1 %46, label %47, label %51

47:                                               ; preds = %43
  %48 = getelementptr inbounds %class.Fingerprinter, ptr %5, i32 0, i32 7
  %49 = load i32, ptr %48, align 4
  %50 = add i32 %49, 1
  store i32 %50, ptr %48, align 4
  br label %59

51:                                               ; preds = %43
  %52 = getelementptr inbounds %class.Fingerprinter, ptr %5, i32 0, i32 3
  %53 = load i32, ptr %52, align 4
  %54 = call noundef i32 @_Z8align_upIiiTnNSt9enable_ifIXcvbsr3std11is_integralIT_EE5valueEiE4typeELi0EES1_S1_T0_(i32 noundef %53, i32 noundef 2)
  %55 = getelementptr inbounds %class.Fingerprinter, ptr %5, i32 0, i32 3
  store i32 %54, ptr %55, align 4
  %56 = getelementptr inbounds %class.Fingerprinter, ptr %5, i32 0, i32 3
  %57 = load i32, ptr %56, align 4
  %58 = add nsw i32 %57, 1
  store i32 %58, ptr %56, align 4
  br label %59

59:                                               ; preds = %51, %47
  br label %81

60:                                               ; preds = %2
  %61 = getelementptr inbounds %class.Fingerprinter, ptr %5, i32 0, i32 7
  %62 = load i32, ptr %61, align 4
  %63 = icmp ult i32 %62, 8
  br i1 %63, label %64, label %68

64:                                               ; preds = %60
  %65 = getelementptr inbounds %class.Fingerprinter, ptr %5, i32 0, i32 7
  %66 = load i32, ptr %65, align 4
  %67 = add i32 %66, 1
  store i32 %67, ptr %65, align 4
  br label %76

68:                                               ; preds = %60
  %69 = getelementptr inbounds %class.Fingerprinter, ptr %5, i32 0, i32 3
  %70 = load i32, ptr %69, align 4
  %71 = call noundef i32 @_Z8align_upIiiTnNSt9enable_ifIXcvbsr3std11is_integralIT_EE5valueEiE4typeELi0EES1_S1_T0_(i32 noundef %70, i32 noundef 2)
  %72 = getelementptr inbounds %class.Fingerprinter, ptr %5, i32 0, i32 3
  store i32 %71, ptr %72, align 4
  %73 = getelementptr inbounds %class.Fingerprinter, ptr %5, i32 0, i32 3
  %74 = load i32, ptr %73, align 4
  %75 = add nsw i32 %74, 2
  store i32 %75, ptr %73, align 4
  br label %76

76:                                               ; preds = %68, %64
  br label %81

77:                                               ; preds = %2
  br label %78

78:                                               ; preds = %77
  %79 = load ptr, ptr @g_assert_poison, align 8
  store i8 88, ptr %79, align 1
  call void @_Z28report_should_not_reach_herePKci(ptr noundef @.str, i32 noundef 280) #8
  unreachable

80:                                               ; No predecessors!
  br label %81

81:                                               ; preds = %80, %76, %59, %42, %25, %8
  ret void
}