; Function Attrs: mustprogress nounwind uwtable
define hidden void @_ZN13Fingerprinter26do_type_calling_conventionE9BasicType(ptr nocapture noundef nonnull align 8 dereferenceable(64) %0, i8 noundef zeroext %1) local_unnamed_addr #1 align 2 {
  switch i8 %1, label %49 [
    i8 14, label %51
    i8 4, label %3
    i8 5, label %3
    i8 8, label %3
    i8 9, label %3
    i8 10, label %3
    i8 11, label %14
    i8 12, label %14
    i8 13, label %14
    i8 15, label %14
    i8 6, label %26
    i8 7, label %37
  ]

3:                                                ; preds = %2, %2, %2, %2, %2
  %4 = getelementptr inbounds i8, ptr %0, i64 56
  %5 = load i32, ptr %4, align 8
  %6 = icmp ult i32 %5, 6
  br i1 %6, label %7, label %9

7:                                                ; preds = %3
  %8 = add nuw nsw i32 %5, 1
  store i32 %8, ptr %4, align 8
  br label %51

9:                                                ; preds = %3
  %10 = getelementptr inbounds i8, ptr %0, i64 36
  %11 = load i32, ptr %10, align 4
  %12 = add i32 %11, 1
  %13 = or i32 %12, 1
  store i32 %13, ptr %10, align 4
  br label %51

14:                                               ; preds = %2, %2, %2, %2
  %15 = getelementptr inbounds i8, ptr %0, i64 56
  %16 = load i32, ptr %15, align 8
  %17 = icmp ult i32 %16, 6
  br i1 %17, label %18, label %20

18:                                               ; preds = %14
  %19 = add nuw nsw i32 %16, 1
  store i32 %19, ptr %15, align 8
  br label %51

20:                                               ; preds = %14
  %21 = getelementptr inbounds i8, ptr %0, i64 36
  %22 = load i32, ptr %21, align 4
  %23 = add i32 %22, 1
  %24 = and i32 %23, -2
  %25 = add nsw i32 %24, 2
  store i32 %25, ptr %21, align 4
  br label %51

26:                                               ; preds = %2
  %27 = getelementptr inbounds i8, ptr %0, i64 60
  %28 = load i32, ptr %27, align 4
  %29 = icmp ult i32 %28, 8
  br i1 %29, label %30, label %32

30:                                               ; preds = %26
  %31 = add nuw nsw i32 %28, 1
  store i32 %31, ptr %27, align 4
  br label %51

32:                                               ; preds = %26
  %33 = getelementptr inbounds i8, ptr %0, i64 36
  %34 = load i32, ptr %33, align 4
  %35 = add i32 %34, 1
  %36 = or i32 %35, 1
  store i32 %36, ptr %33, align 4
  br label %51

37:                                               ; preds = %2
  %38 = getelementptr inbounds i8, ptr %0, i64 60
  %39 = load i32, ptr %38, align 4
  %40 = icmp ult i32 %39, 8
  br i1 %40, label %41, label %43

41:                                               ; preds = %37
  %42 = add nuw nsw i32 %39, 1
  store i32 %42, ptr %38, align 4
  br label %51

43:                                               ; preds = %37
  %44 = getelementptr inbounds i8, ptr %0, i64 36
  %45 = load i32, ptr %44, align 4
  %46 = add i32 %45, 1
  %47 = and i32 %46, -2
  %48 = add nsw i32 %47, 2
  store i32 %48, ptr %44, align 4
  br label %51

49:                                               ; preds = %2
  %50 = load ptr, ptr @g_assert_poison, align 8
  store i8 88, ptr %50, align 1
  tail call void @_Z28report_should_not_reach_herePKci(ptr noundef nonnull @.str, i32 noundef 280) #15
  unreachable

51:                                               ; preds = %41, %43, %30, %32, %18, %20, %7, %9, %2
  ret void
}